target datalayout = "e-m:e-p270:32:32-p271:32:32-p272:64:64-i64:64-i128:128-f80:128-n8:16:32:64-S128"
target triple = "x86_64-pc-linux-gnu"

%struct.UriMemoryManagerStruct = type { ptr, ptr, ptr, ptr, ptr, ptr }
%struct.UriParserStateStructW = type { ptr, i32, ptr, ptr }
%struct.UriUriStructW = type { %struct.UriTextRangeStructW, %struct.UriTextRangeStructW, %struct.UriTextRangeStructW, %struct.UriHostDataStructW, %struct.UriTextRangeStructW, ptr, ptr, %struct.UriTextRangeStructW, %struct.UriTextRangeStructW, i32, i32, ptr }
%struct.UriHostDataStructW = type { ptr, ptr, %struct.UriTextRangeStructW }
%struct.UriTextRangeStructW = type { ptr, ptr }
%struct.UriIp4Struct = type { [4 x i8] }

; Function Attrs: inlinehint nounwind uwtable
define internal i32 @uriOnExitOwnHost2W(ptr noundef %0, ptr noundef %1, ptr noundef %2) #4 {
  %4 = alloca i32, align 4
  %5 = alloca ptr, align 8
  %6 = alloca ptr, align 8
  %7 = alloca ptr, align 8
  store ptr %0, ptr %5, align 8, !tbaa !59
  store ptr %1, ptr %6, align 8, !tbaa !61
  store ptr %2, ptr %7, align 8, !tbaa !10
  %8 = load ptr, ptr %6, align 8, !tbaa !61
  %9 = load ptr, ptr %5, align 8, !tbaa !59
  %10 = getelementptr inbounds nuw %struct.UriParserStateStructW, ptr %9, i32 0, i32 0
  %11 = load ptr, ptr %10, align 8, !tbaa !63
  %12 = getelementptr inbounds nuw %struct.UriUriStructW, ptr %11, i32 0, i32 2
  %13 = getelementptr inbounds nuw %struct.UriTextRangeStructW, ptr %12, i32 0, i32 1
  store ptr %8, ptr %13, align 8, !tbaa !83
  %14 = load ptr, ptr %7, align 8, !tbaa !10
  %15 = getelementptr inbounds nuw %struct.UriMemoryManagerStruct, ptr %14, i32 0, i32 0
  %16 = load ptr, ptr %15, align 8, !tbaa !56
  %17 = load ptr, ptr %7, align 8, !tbaa !10
  %18 = call ptr %16(ptr noundef %17, i64 noundef 4)
  %19 = load ptr, ptr %5, align 8, !tbaa !59
  %20 = getelementptr inbounds nuw %struct.UriParserStateStructW, ptr %19, i32 0, i32 0
  %21 = load ptr, ptr %20, align 8, !tbaa !63
  %22 = getelementptr inbounds nuw %struct.UriUriStructW, ptr %21, i32 0, i32 3
  %23 = getelementptr inbounds nuw %struct.UriHostDataStructW, ptr %22, i32 0, i32 0
  store ptr %18, ptr %23, align 8, !tbaa !84
  %24 = load ptr, ptr %5, align 8, !tbaa !59
  %25 = getelementptr inbounds nuw %struct.UriParserStateStructW, ptr %24, i32 0, i32 0
  %26 = load ptr, ptr %25, align 8, !tbaa !63
  %27 = getelementptr inbounds nuw %struct.UriUriStructW, ptr %26, i32 0, i32 3
  %28 = getelementptr inbounds nuw %struct.UriHostDataStructW, ptr %27, i32 0, i32 0
  %29 = load ptr, ptr %28, align 8, !tbaa !84
  %30 = icmp eq ptr %29, null
  br i1 %30, label %31, label %32

31:                                               ; preds = %3
  store i32 0, ptr %4, align 4
  br label %72

32:                                               ; preds = %3
  %33 = load ptr, ptr %5, align 8, !tbaa !59
  %34 = getelementptr inbounds nuw %struct.UriParserStateStructW, ptr %33, i32 0, i32 0
  %35 = load ptr, ptr %34, align 8, !tbaa !63
  %36 = getelementptr inbounds nuw %struct.UriUriStructW, ptr %35, i32 0, i32 3
  %37 = getelementptr inbounds nuw %struct.UriHostDataStructW, ptr %36, i32 0, i32 0
  %38 = load ptr, ptr %37, align 8, !tbaa !84
  %39 = getelementptr inbounds nuw %struct.UriIp4Struct, ptr %38, i32 0, i32 0
  %40 = getelementptr inbounds [4 x i8], ptr %39, i64 0, i64 0
  %41 = load ptr, ptr %5, align 8, !tbaa !59
  %42 = getelementptr inbounds nuw %struct.UriParserStateStructW, ptr %41, i32 0, i32 0
  %43 = load ptr, ptr %42, align 8, !tbaa !63
  %44 = getelementptr inbounds nuw %struct.UriUriStructW, ptr %43, i32 0, i32 2
  %45 = getelementptr inbounds nuw %struct.UriTextRangeStructW, ptr %44, i32 0, i32 0
  %46 = load ptr, ptr %45, align 8, !tbaa !82
  %47 = load ptr, ptr %5, align 8, !tbaa !59
  %48 = getelementptr inbounds nuw %struct.UriParserStateStructW, ptr %47, i32 0, i32 0
  %49 = load ptr, ptr %48, align 8, !tbaa !63
  %50 = getelementptr inbounds nuw %struct.UriUriStructW, ptr %49, i32 0, i32 2
  %51 = getelementptr inbounds nuw %struct.UriTextRangeStructW, ptr %50, i32 0, i32 1
  %52 = load ptr, ptr %51, align 8, !tbaa !83
  %53 = call i32 @uriParseIpFourAddressW(ptr noundef %40, ptr noundef %46, ptr noundef %52)
  %54 = icmp ne i32 %53, 0
  br i1 %54, label %55, label %71

55:                                               ; preds = %32
  %56 = load ptr, ptr %7, align 8, !tbaa !10
  %57 = getelementptr inbounds nuw %struct.UriMemoryManagerStruct, ptr %56, i32 0, i32 4
  %58 = load ptr, ptr %57, align 8, !tbaa !31
  %59 = load ptr, ptr %7, align 8, !tbaa !10
  %60 = load ptr, ptr %5, align 8, !tbaa !59
  %61 = getelementptr inbounds nuw %struct.UriParserStateStructW, ptr %60, i32 0, i32 0
  %62 = load ptr, ptr %61, align 8, !tbaa !63
  %63 = getelementptr inbounds nuw %struct.UriUriStructW, ptr %62, i32 0, i32 3
  %64 = getelementptr inbounds nuw %struct.UriHostDataStructW, ptr %63, i32 0, i32 0
  %65 = load ptr, ptr %64, align 8, !tbaa !84
  call void %58(ptr noundef %59, ptr noundef %65)
  %66 = load ptr, ptr %5, align 8, !tbaa !59
  %67 = getelementptr inbounds nuw %struct.UriParserStateStructW, ptr %66, i32 0, i32 0
  %68 = load ptr, ptr %67, align 8, !tbaa !63
  %69 = getelementptr inbounds nuw %struct.UriUriStructW, ptr %68, i32 0, i32 3
  %70 = getelementptr inbounds nuw %struct.UriHostDataStructW, ptr %69, i32 0, i32 0
  store ptr null, ptr %70, align 8, !tbaa !84
  br label %71

71:                                               ; preds = %55, %32
  store i32 1, ptr %4, align 4
  br label %72

72:                                               ; preds = %71, %31
  %73 = load i32, ptr %4, align 4
  ret i32 %73
}