; Function Attrs: inlinehint nounwind uwtable
define internal fastcc range(i32 0, 2) i32 @uriOnExitOwnHost2W(ptr noundef nonnull readonly captures(none) %0, ptr noundef nonnull %1, ptr noundef %2) unnamed_addr #4 {
  %4 = load ptr, ptr %0, align 8, !tbaa !51
  %5 = getelementptr inbounds nuw i8, ptr %4, i64 40
  store ptr %1, ptr %5, align 8, !tbaa !79
  %6 = load ptr, ptr %2, align 8, !tbaa !49
  %7 = tail call ptr %6(ptr noundef nonnull %2, i64 noundef 4) #7
  %8 = load ptr, ptr %0, align 8, !tbaa !51
  %9 = getelementptr inbounds nuw i8, ptr %8, i64 48
  store ptr %7, ptr %9, align 8, !tbaa !77
  %10 = icmp eq ptr %7, null
  br i1 %10, label %25, label %11

11:                                               ; preds = %3
  %12 = getelementptr inbounds nuw i8, ptr %8, i64 32
  %13 = load ptr, ptr %12, align 8, !tbaa !76
  %14 = getelementptr inbounds nuw i8, ptr %8, i64 40
  %15 = load ptr, ptr %14, align 8, !tbaa !79
  %16 = tail call i32 @uriParseIpFourAddressW(ptr noundef nonnull %7, ptr noundef %13, ptr noundef %15) #7
  %.not = icmp eq i32 %16, 0
  br i1 %.not, label %25, label %17

17:                                               ; preds = %11
  %18 = getelementptr inbounds nuw i8, ptr %2, i64 32
  %19 = load ptr, ptr %18, align 8, !tbaa !32
  %20 = load ptr, ptr %0, align 8, !tbaa !51
  %21 = getelementptr inbounds nuw i8, ptr %20, i64 48
  %22 = load ptr, ptr %21, align 8, !tbaa !77
  tail call void %19(ptr noundef nonnull %2, ptr noundef %22) #7
  %23 = load ptr, ptr %0, align 8, !tbaa !51
  %24 = getelementptr inbounds nuw i8, ptr %23, i64 48
  store ptr null, ptr %24, align 8, !tbaa !77
  br label %25

25:                                               ; preds = %11, %17, %3
  %.0 = phi i32 [ 0, %3 ], [ 1, %17 ], [ 1, %11 ]
  ret i32 %.0
}